; Function Attrs: nounwind uwtable
define dso_local void @startSaving(i32 noundef %0) local_unnamed_addr #0 {
  %2 = and i32 %0, 1
  %.not = icmp eq i32 %2, 0
  %3 = tail call i32 @getpid() #23
  %4 = load i32, ptr @server, align 8, !tbaa !168
  %.not4 = icmp eq i32 %3, %4
  %.mux = select i1 %.not4, i32 5, i32 1
  %. = select i1 %.not4, i32 2, i32 0
  %.0 = select i1 %.not, i32 %., i32 %.mux
  tail call void @moduleFireServerEvent(i64 noundef 1, i32 noundef %.0, ptr noundef null) #23
  ret void
}